Certificate:
    Data:
        Version: 3 (0x2)
        Serial Number: 1 (0x1)
    Signature Algorithm: sha256WithRSAEncryption
        Issuer: CN=devcert
        Validity
            Not Before: May  6 15:01:52 2020 GMT
            Not After : Aug  9 15:01:52 2022 GMT
        Subject: CN=localhost
        Subject Public Key Info:
            Public Key Algorithm: rsaEncryption
                Public-Key: (2048 bit)
                Modulus:
                    00:b0:35:4b:7e:43:65:37:ed:86:f0:18:f4:02:88:
                    0b:0a:8c:6e:f4:ac:db:eb:81:2c:58:6b:89:aa:13:
                    01:13:61:b7:b3:c9:6a:0e:23:3c:db:36:b7:b9:e9:
                    80:23:7c:67:9c:39:a3:97:bb:30:3f:1d:09:a7:d7:
                    ec:08:d1:85:bd:f2:5b:d0:76:25:22:d4:1d:b8:a6:
                    6d:c9:92:7a:c7:95:cd:60:01:45:1f:ef:d7:b5:0d:
                    88:2b:7a:a7:8a:00:68:9b:eb:18:d9:59:55:d1:dc:
                    17:f2:8f:f8:7a:c5:93:63:e5:a9:94:ae:cb:97:89:
                    fc:fe:b5:6b:4a:f9:c7:d0:b7:d7:d7:1e:fe:1d:61:
                    e3:8b:a0:99:04:fd:65:c8:ec:62:33:bf:d5:3a:93:
                    d8:e7:04:66:b1:a5:ad:53:3d:8b:5c:8c:02:91:9f:
                    18:96:52:1a:3a:02:4a:df:f2:cd:af:fa:57:62:82:
                    89:99:66:7c:7a:3c:1b:ba:5b:98:1f:9a:c0:c3:41:
                    57:44:74:0f:05:3f:d6:05:ce:b6:38:14:e5:69:bb:
                    ed:61:33:38:b7:44:f8:d0:db:13:1b:0d:bc:fa:87:
                    25:5f:e4:6d:2d:35:ca:d2:4c:5a:3b:f3:98:4b:0e:
                    c1:64:ee:48:bf:a2:c4:ce:82:6e:87:95:13:1a:3f:
                    20:33
                Exponent: 65537 (0x10001)
        X509v3 extensions:
            X509v3 Basic Constraints: critical
                CA:FALSE
            X509v3 Subject Key Identifier: 
                0E:90:8A:53:D0:43:5D:01:06:67:CE:EB:1F:A2:34:54:DA:82:F3:C2
            X509v3 Authority Key Identifier: 
                keyid:9D:1D:39:F9:D4:1C:FF:A7:66:BD:5D:94:E7:E9:B0:B8:46:8F:62:7F
                DirName:/CN=devcert
                serial:8E:84:CA:CD:1C:D2:9E:B8

            X509v3 Key Usage: critical
                Digital Signature, Key Encipherment
            X509v3 Extended Key Usage: 
                TLS Web Server Authentication
            X509v3 Subject Alternative Name: 
                DNS:localhost, DNS:*.localhost
    Signature Algorithm: sha256WithRSAEncryption
         23:93:14:d3:1c:fc:c6:ab:d1:f5:b8:c8:c9:99:22:10:6a:be:
         0a:ab:5a:51:79:83:1a:eb:96:2c:94:27:2e:f5:25:b8:54:4b:
         39:02:c1:77:63:3e:b7:9a:e6:7d:cf:ee:5e:5a:fc:f3:e0:61:
         af:ea:36:b3:bb:2f:88:49:41:13:5c:4c:d4:22:cc:2d:e4:ad:
         d2:b2:36:f4:29:ba:64:2b:61:5e:30:5b:07:19:f4:f3:09:ba:
         70:23:b4:6f:53:4d:d6:60:8a:33:6a:2f:e1:e8:c8:8e:b4:66:
         69:36:f0:69:8c:86:62:6f:06:cb:59:9e:21:d0:a0:d4:bd:a1:
         4f:f3:bb:ed:40:00:38:91:6a:a7:4b:46:72:d7:1a:a7:44:87:
         74:5a:4d:de:f6:fa:23:10:7d:6f:72:4f:aa:82:77:15:19:29:
         30:14:3b:9c:ce:7d:cb:26:5d:94:d0:66:15:01:5f:20:26:c5:
         ea:9b:df:bb:dc:ee:c0:63:6d:fe:0c:a7:f7:fe:48:4e:9e:eb:
         fc:8a:c8:d3:05:e2:e3:b3:f3:c4:a9:a7:7b:b2:7d:ad:23:73:
         62:2e:38:b7:62:a4:92:66:be:f8:5f:8f:2b:92:ea:72:54:99:
         0f:eb:00:3d:58:1b:67:d7:90:6f:da:79:39:5e:38:f0:7d:9a:
         50:49:4f:a0
-----BEGIN CERTIFICATE-----
MIIDXjCCAkagAwIBAgIBATANBgkqhkiG9w0BAQsFADASMRAwDgYDVQQDDAdkZXZj
ZXJ0MB4XDTIwMDUwNjE1MDE1MloXDTIyMDgwOTE1MDE1MlowFDESMBAGA1UEAwwJ
bG9jYWxob3N0MIIBIjANBgkqhkiG9w0BAQEFAAOCAQ8AMIIBCgKCAQEAsDVLfkNl
N+2G8Bj0AogLCoxu9Kzb64EsWGuJqhMBE2G3s8lqDiM82za3uemAI3xnnDmjl7sw
Px0Jp9fsCNGFvfJb0HYlItQduKZtyZJ6x5XNYAFFH+/XtQ2IK3qnigBom+sY2VlV
0dwX8o/4esWTY+WplK7Ll4n8/rVrSvnH0LfX1x7+HWHji6CZBP1lyOxiM7/VOpPY
5wRmsaWtUz2LXIwCkZ8YllIaOgJK3/LNr/pXYoKJmWZ8ejwbuluYH5rAw0FXRHQP
BT/WBc62OBTlabvtYTM4t0T40NsTGw28+oclX+RtLTXK0kxaO/OYSw7BZO5Iv6LE
zoJuh5UTGj8gMwIDAQABo4G8MIG5MAwGA1UdEwEB/wQCMAAwHQYDVR0OBBYEFA6Q
ilPQQ10BBmfO6x+iNFTagvPCMEIGA1UdIwQ7MDmAFJ0dOfnUHP+nZr1dlOfpsLhG
j2J/oRakFDASMRAwDgYDVQQDDAdkZXZjZXJ0ggkAjoTKzRzSnrgwDgYDVR0PAQH/
BAQDAgWgMBMGA1UdJQQMMAoGCCsGAQUFBwMBMCEGA1UdEQQaMBiCCWxvY2FsaG9z
dIILKi5sb2NhbGhvc3QwDQYJKoZIhvcNAQELBQADggEBACOTFNMc/Mar0fW4yMmZ
IhBqvgqrWlF5gxrrliyUJy71JbhUSzkCwXdjPrea5n3P7l5a/PPgYa/qNrO7L4hJ
QRNcTNQizC3krdKyNvQpumQrYV4wWwcZ9PMJunAjtG9TTdZgijNqL+HoyI60Zmk2
8GmMhmJvBstZniHQoNS9oU/zu+1AADiRaqdLRnLXGqdEh3RaTd72+iMQfW9yT6qC
dxUZKTAUO5zOfcsmXZTQZhUBXyAmxeqb37vc7sBjbf4Mp/f+SE6e6/yKyNMF4uOz
88Spp3uyfa0jc2IuOLdipJJmvvhfjyuS6nJUmQ/rAD1YG2fXkG/aeTleOPB9mlBJ
T6A=
-----END CERTIFICATE-----
